target datalayout = "e-m:e-p270:32:32-p271:32:32-p272:64:64-i64:64-i128:128-f80:128-n8:16:32:64-S128"
target triple = "x86_64-pc-linux-gnu"

%struct.expert_field = type { i32, i32 }
%struct.MessageHeader = type { [4 x i8], %struct.Version, i8, i8, i32, i32, i32, ptr }
%struct.Version = type { i8, i8 }

@hf_GIAS_QueryOrderMgr_get_event_descriptions_return_loop = internal global i32 0, align 4
@hf_GIAS_Event_event_name = internal global i32 0, align 4
@hf_GIAS_Event_event_type = internal global i32 0, align 4
@hf_GIAS_Event_event_description = internal global i32 0, align 4
@ei_gias_unknown_giop_msg = internal global %struct.expert_field zeroinitializer, align 4
@ei_gias_unknown_exception = internal global %struct.expert_field zeroinitializer, align 4
@ett_giop_struct = internal global i32 0, align 4
@ett_giop_sequence = internal global i32 0, align 4
@boundary = internal global i32 12, align 4
@.str.826 = private unnamed_addr constant [21 x i8] c"Unknown exception %d\00", align 1
@.str.827 = private unnamed_addr constant [24 x i8] c"Unknown GIOP message %d\00", align 1
@.str.874 = private unnamed_addr constant [18 x i8] c"struct GIAS_Event\00", align 1
@.str.956 = private unnamed_addr constant [58 x i8] c"sequence GIAS_QueryOrderMgr_get_event_descriptions_return\00", align 1

; Function Attrs: null_pointer_is_valid sspstrong uwtable
define internal void @decode_GIAS_Event_st(ptr noundef %0, ptr noundef %1, ptr noundef %2, ptr noundef %3, ptr noundef %4, ptr noundef %5, ptr noundef %6, i1 noundef zeroext %7) #0 {
  %9 = alloca ptr, align 8
  %10 = alloca ptr, align 8
  %11 = alloca ptr, align 8
  %12 = alloca ptr, align 8
  %13 = alloca ptr, align 8
  %14 = alloca ptr, align 8
  %15 = alloca ptr, align 8
  %16 = alloca i8, align 1
  %17 = alloca i32, align 4
  store ptr %0, ptr %9, align 8
  store ptr %1, ptr %10, align 8
  store ptr %2, ptr %11, align 8
  store ptr %3, ptr %12, align 8
  store ptr %4, ptr %13, align 8
  store ptr %5, ptr %14, align 8
  store ptr %6, ptr %15, align 8
  %18 = zext i1 %7 to i8
  store i8 %18, ptr %16, align 1
  call void @llvm.lifetime.start.p0(i64 4, ptr %17) #6
  %19 = load ptr, ptr %11, align 8
  %20 = load ptr, ptr %9, align 8
  %21 = load ptr, ptr %13, align 8
  %22 = load i8, ptr %16, align 1, !range !6, !noundef !7
  %23 = trunc i8 %22 to i1
  %24 = load i32, ptr @boundary, align 4
  %25 = load i32, ptr @hf_GIAS_Event_event_name, align 4
  call void @giop_add_CDR_string(ptr noundef %19, ptr noundef %20, ptr noundef %21, i1 noundef zeroext %23, i32 noundef %24, i32 noundef %25)
  %26 = load ptr, ptr %9, align 8
  %27 = load ptr, ptr %13, align 8
  %28 = load i8, ptr %16, align 1, !range !6, !noundef !7
  %29 = trunc i8 %28 to i1
  %30 = load i32, ptr @boundary, align 4
  %31 = call i32 @get_CDR_enum(ptr noundef %26, ptr noundef %27, i1 noundef zeroext %29, i32 noundef %30)
  store i32 %31, ptr %17, align 4
  %32 = load ptr, ptr %11, align 8
  %33 = load i32, ptr @hf_GIAS_Event_event_type, align 4
  %34 = load ptr, ptr %9, align 8
  %35 = load ptr, ptr %13, align 8
  %36 = load i32, ptr %35, align 4
  %37 = sub i32 %36, 4
  %38 = load i32, ptr %17, align 4
  %39 = call ptr @proto_tree_add_uint(ptr noundef %32, i32 noundef %33, ptr noundef %34, i32 noundef %37, i32 noundef 4, i32 noundef %38)
  %40 = load ptr, ptr %11, align 8
  %41 = load ptr, ptr %9, align 8
  %42 = load ptr, ptr %13, align 8
  %43 = load i8, ptr %16, align 1, !range !6, !noundef !7
  %44 = trunc i8 %43 to i1
  %45 = load i32, ptr @boundary, align 4
  %46 = load i32, ptr @hf_GIAS_Event_event_description, align 4
  call void @giop_add_CDR_string(ptr noundef %40, ptr noundef %41, ptr noundef %42, i1 noundef zeroext %44, i32 noundef %45, i32 noundef %46)
  call void @llvm.lifetime.end.p0(i64 4, ptr %17) #6
  ret void
}

; Function Attrs: null_pointer_is_valid sspstrong uwtable
define internal void @decode_GIAS_QueryOrderMgr_get_event_descriptions(ptr noundef %0, ptr noundef %1, ptr noundef %2, ptr noundef %3, ptr noundef %4, ptr noundef %5, ptr noundef %6, i1 noundef zeroext %7) #0 {
  %9 = alloca ptr, align 8
  %10 = alloca ptr, align 8
  %11 = alloca ptr, align 8
  %12 = alloca ptr, align 8
  %13 = alloca ptr, align 8
  %14 = alloca ptr, align 8
  %15 = alloca ptr, align 8
  %16 = alloca i8, align 1
  %17 = alloca i32, align 4
  %18 = alloca i32, align 4
  %19 = alloca ptr, align 8
  %20 = alloca ptr, align 8
  store ptr %0, ptr %9, align 8
  store ptr %1, ptr %10, align 8
  store ptr %2, ptr %11, align 8
  store ptr %3, ptr %12, align 8
  store ptr %4, ptr %13, align 8
  store ptr %5, ptr %14, align 8
  store ptr %6, ptr %15, align 8
  %21 = zext i1 %7 to i8
  store i8 %21, ptr %16, align 1
  call void @llvm.lifetime.start.p0(i64 4, ptr %17) #6
  call void @llvm.lifetime.start.p0(i64 4, ptr %18) #6
  %22 = load ptr, ptr %14, align 8
  %23 = getelementptr inbounds nuw %struct.MessageHeader, ptr %22, i32 0, i32 3
  %24 = load i8, ptr %23, align 1
  %25 = zext i8 %24 to i32
  switch i32 %25, label %85 [
    i32 0, label %93
    i32 1, label %26
  ]

26:                                               ; preds = %8
  %27 = load ptr, ptr %14, align 8
  %28 = getelementptr inbounds nuw %struct.MessageHeader, ptr %27, i32 0, i32 6
  %29 = load i32, ptr %28, align 8
  switch i32 %29, label %77 [
    i32 0, label %30
    i32 1, label %84
  ]

30:                                               ; preds = %26
  %31 = load ptr, ptr %9, align 8
  %32 = load ptr, ptr %13, align 8
  %33 = load i8, ptr %16, align 1, !range !6, !noundef !7
  %34 = trunc i8 %33 to i1
  %35 = load i32, ptr @boundary, align 4
  %36 = call i32 @get_CDR_ulong(ptr noundef %31, ptr noundef %32, i1 noundef zeroext %34, i32 noundef %35)
  store i32 %36, ptr %17, align 4
  %37 = load ptr, ptr %11, align 8
  %38 = load i32, ptr @hf_GIAS_QueryOrderMgr_get_event_descriptions_return_loop, align 4
  %39 = load ptr, ptr %9, align 8
  %40 = load ptr, ptr %13, align 8
  %41 = load i32, ptr %40, align 4
  %42 = sub i32 %41, 4
  %43 = load i32, ptr %17, align 4
  %44 = call ptr @proto_tree_add_uint(ptr noundef %37, i32 noundef %38, ptr noundef %39, i32 noundef %42, i32 noundef 4, i32 noundef %43)
  call void @llvm.lifetime.start.p0(i64 8, ptr %19) #6
  %45 = load ptr, ptr %11, align 8
  store ptr %45, ptr %19, align 8
  %46 = load ptr, ptr %11, align 8
  %47 = load ptr, ptr %9, align 8
  %48 = load ptr, ptr %13, align 8
  %49 = load i32, ptr %48, align 4
  %50 = load i32, ptr @ett_giop_sequence, align 4
  %51 = call ptr @proto_tree_add_subtree(ptr noundef %46, ptr noundef %47, i32 noundef %49, i32 noundef -1, i32 noundef %50, ptr noundef null, ptr noundef @.str.956)
  store ptr %51, ptr %11, align 8
  store i32 0, ptr %18, align 4
  br label %52

52:                                               ; preds = %72, %30
  %53 = load i32, ptr %18, align 4
  %54 = load i32, ptr %17, align 4
  %55 = icmp ult i32 %53, %54
  br i1 %55, label %56, label %75

56:                                               ; preds = %52
  call void @llvm.lifetime.start.p0(i64 8, ptr %20) #6
  %57 = load ptr, ptr %11, align 8
  %58 = load ptr, ptr %9, align 8
  %59 = load ptr, ptr %13, align 8
  %60 = load i32, ptr %59, align 4
  %61 = load i32, ptr @ett_giop_struct, align 4
  %62 = call ptr @proto_tree_add_subtree(ptr noundef %57, ptr noundef %58, i32 noundef %60, i32 noundef -1, i32 noundef %61, ptr noundef null, ptr noundef @.str.874)
  store ptr %62, ptr %20, align 8
  %63 = load ptr, ptr %9, align 8
  %64 = load ptr, ptr %10, align 8
  %65 = load ptr, ptr %20, align 8
  %66 = load ptr, ptr %12, align 8
  %67 = load ptr, ptr %13, align 8
  %68 = load ptr, ptr %14, align 8
  %69 = load ptr, ptr %15, align 8
  %70 = load i8, ptr %16, align 1, !range !6, !noundef !7
  %71 = trunc i8 %70 to i1
  call void @decode_GIAS_Event_st(ptr noundef %63, ptr noundef %64, ptr noundef %65, ptr noundef %66, ptr noundef %67, ptr noundef %68, ptr noundef %69, i1 noundef zeroext %71)
  call void @llvm.lifetime.end.p0(i64 8, ptr %20) #6
  br label %72

72:                                               ; preds = %56
  %73 = load i32, ptr %18, align 4
  %74 = add i32 %73, 1
  store i32 %74, ptr %18, align 4
  br label %52, !llvm.loop !64

75:                                               ; preds = %52
  %76 = load ptr, ptr %19, align 8
  store ptr %76, ptr %11, align 8
  call void @llvm.lifetime.end.p0(i64 8, ptr %19) #6
  br label %84

77:                                               ; preds = %26
  %78 = load ptr, ptr %10, align 8
  %79 = load ptr, ptr %12, align 8
  %80 = load ptr, ptr %14, align 8
  %81 = getelementptr inbounds nuw %struct.MessageHeader, ptr %80, i32 0, i32 6
  %82 = load i32, ptr %81, align 8
  %83 = call ptr (ptr, ptr, ptr, ptr, ...) @expert_add_info_format(ptr noundef %78, ptr noundef %79, ptr noundef @ei_gias_unknown_exception, ptr noundef @.str.826, i32 noundef %82)
  br label %84

84:                                               ; preds = %77, %26, %75
  br label %93

85:                                               ; preds = %8
  %86 = load ptr, ptr %10, align 8
  %87 = load ptr, ptr %12, align 8
  %88 = load ptr, ptr %14, align 8
  %89 = getelementptr inbounds nuw %struct.MessageHeader, ptr %88, i32 0, i32 3
  %90 = load i8, ptr %89, align 1
  %91 = zext i8 %90 to i32
  %92 = call ptr (ptr, ptr, ptr, ptr, ...) @expert_add_info_format(ptr noundef %86, ptr noundef %87, ptr noundef @ei_gias_unknown_giop_msg, ptr noundef @.str.827, i32 noundef %91)
  br label %93

93:                                               ; preds = %85, %84, %8
  call void @llvm.lifetime.end.p0(i64 4, ptr %18) #6
  call void @llvm.lifetime.end.p0(i64 4, ptr %17) #6
  ret void
}